target datalayout = "e-m:e-p270:32:32-p271:32:32-p272:64:64-i64:64-i128:128-f80:128-n8:16:32:64-S128"
target triple = "x86_64-pc-linux-gnu"

; Function Attrs: nounwind uwtable
define i32 @av_opt_set_dict_val(ptr noundef %0, ptr noundef %1, ptr noundef %2, i32 noundef %3) #0 {
  %5 = alloca i32, align 4
  %6 = alloca ptr, align 8
  %7 = alloca ptr, align 8
  %8 = alloca ptr, align 8
  %9 = alloca i32, align 4
  %10 = alloca ptr, align 8
  %11 = alloca i32, align 4
  %12 = alloca i32, align 4
  store ptr %0, ptr %6, align 8, !tbaa !4
  store ptr %1, ptr %7, align 8, !tbaa !19
  store ptr %2, ptr %8, align 8, !tbaa !65
  store i32 %3, ptr %9, align 4, !tbaa !20
  call void @llvm.lifetime.start.p0(i64 8, ptr %10) #11
  call void @llvm.lifetime.start.p0(i64 4, ptr %11) #11
  %13 = load ptr, ptr %6, align 8, !tbaa !4
  %14 = load ptr, ptr %7, align 8, !tbaa !19
  %15 = load i32, ptr %9, align 4, !tbaa !20
  %16 = call i32 @opt_set_init(ptr noundef %13, ptr noundef %14, i32 noundef %15, i32 noundef 9, ptr noundef null, ptr noundef null, ptr noundef %10)
  store i32 %16, ptr %11, align 4, !tbaa !20
  %17 = load i32, ptr %11, align 4, !tbaa !20
  %18 = icmp slt i32 %17, 0
  br i1 %18, label %19, label %21

19:                                               ; preds = %4
  %20 = load i32, ptr %11, align 4, !tbaa !20
  store i32 %20, ptr %5, align 4
  store i32 1, ptr %12, align 4
  br label %26

21:                                               ; preds = %4
  %22 = load ptr, ptr %10, align 8, !tbaa !67
  call void @av_dict_free(ptr noundef %22)
  %23 = load ptr, ptr %10, align 8, !tbaa !67
  %24 = load ptr, ptr %8, align 8, !tbaa !65
  %25 = call i32 @av_dict_copy(ptr noundef %23, ptr noundef %24, i32 noundef 0)
  store i32 %25, ptr %5, align 4
  store i32 1, ptr %12, align 4
  br label %26

26:                                               ; preds = %21, %19
  call void @llvm.lifetime.end.p0(i64 4, ptr %11) #11
  call void @llvm.lifetime.end.p0(i64 8, ptr %10) #11
  %27 = load i32, ptr %5, align 4
  ret i32 %27
}